; ModuleID = 'source-C-CXX/15/553.c'
source_filename = "source-C-CXX/15/553.c"
target datalayout = "e-m:e-p270:32:32-p271:32:32-p272:64:64-i64:64-f80:128-n8:16:32:64-S128"
target triple = "x86_64-pc-linux-gnu"

@.str = private unnamed_addr constant [3 x i8] c"%d\00", align 1

; Function Attrs: nofree nounwind sspstrong uwtable
define dso_local i32 @main() local_unnamed_addr #0 {
  %1 = alloca i32, align 4
  %2 = bitcast i32* %1 to i8*
  call void @llvm.lifetime.start.p0i8(i64 4, i8* nonnull %2) #5
  %3 = call i32 (i8*, ...) @__isoc99_scanf(i8* getelementptr inbounds ([3 x i8], [3 x i8]* @.str, i64 0, i64 0), i32* nonnull %1)
  %4 = load i32, i32* %1, align 4, !tbaa !5
  %5 = sitofp i32 %4 to double
  %6 = call double @log10(double %5) #5
  %7 = fptosi double %6 to i32
  %8 = load i32, i32* %1, align 4, !tbaa !5
  %9 = icmp sgt i32 %8, 0
  br i1 %9, label %10, label %19

10:                                               ; preds = %0, %10
  %11 = phi i32 [ %15, %10 ], [ 0, %0 ]
  %12 = phi i32 [ %16, %10 ], [ %8, %0 ]
  %13 = mul nsw i32 %11, 10
  %14 = urem i32 %12, 10
  %15 = add nsw i32 %13, %14
  %16 = udiv i32 %12, 10
  %17 = icmp ult i32 %12, 10
  br i1 %17, label %18, label %10, !llvm.loop !9

18:                                               ; preds = %10
  store i32 %16, i32* %1, align 4, !tbaa !5
  br label %19

19:                                               ; preds = %18, %0
  %20 = phi i32 [ %15, %18 ], [ 0, %0 ]
  %21 = sitofp i32 %20 to double
  %22 = call double @log10(double %21) #5
  %23 = fptosi double %22 to i32
  %24 = icmp sgt i32 %7, %23
  br i1 %24, label %25, label %30

25:                                               ; preds = %19, %25
  %26 = phi i32 [ %28, %25 ], [ %7, %19 ]
  %27 = call i32 @putchar(i32 48)
  %28 = add nsw i32 %26, -1
  %29 = icmp sgt i32 %28, %23
  br i1 %29, label %25, label %30, !llvm.loop !11

30:                                               ; preds = %25, %19
  %31 = call i32 (i8*, ...) @printf(i8* nonnull dereferenceable(1) getelementptr inbounds ([3 x i8], [3 x i8]* @.str, i64 0, i64 0), i32 %20)
  call void @llvm.lifetime.end.p0i8(i64 4, i8* nonnull %2) #5
  ret i32 0
}

; Function Attrs: argmemonly mustprogress nofree nosync nounwind willreturn
declare void @llvm.lifetime.start.p0i8(i64 immarg, i8* nocapture) #1

; Function Attrs: nofree nounwind
declare noundef i32 @__isoc99_scanf(i8* nocapture noundef readonly, ...) local_unnamed_addr #2

; Function Attrs: mustprogress nofree nounwind willreturn
declare double @log10(double) local_unnamed_addr #3

; Function Attrs: nofree nounwind
declare noundef i32 @printf(i8* nocapture noundef readonly, ...) local_unnamed_addr #2

; Function Attrs: argmemonly mustprogress nofree nosync nounwind willreturn
declare void @llvm.lifetime.end.p0i8(i64 immarg, i8* nocapture) #1

; Function Attrs: nofree nounwind
declare noundef i32 @putchar(i32 noundef) local_unnamed_addr #4


!llvm.module.flags = !{!0, !1, !2, !3}
!llvm.ident = !{!4}

!0 = !{i32 1, !"wchar_size", i32 4}
!1 = !{i32 7, !"PIC Level", i32 2}
!2 = !{i32 7, !"PIE Level", i32 2}
!3 = !{i32 7, !"uwtable", i32 1}
!4 = !{!"clang version 13.0.0"}
!5 = !{!6, !6, i64 0}
!6 = !{!"int", !7, i64 0}
!7 = !{!"omnipotent char", !8, i64 0}
!8 = !{!"Simple C/C++ TBAA"}
!9 = distinct !{!9, !10}
!10 = !{!"llvm.loop.mustprogress"}
!11 = distinct !{!11, !10}
